target datalayout = "e-m:e-p270:32:32-p271:32:32-p272:64:64-i64:64-i128:128-f80:128-n8:16:32:64-S128"
target triple = "x86_64-pc-linux-gnu"

%"class.cv::Vec" = type { %"class.cv::Matx" }
%"class.cv::Matx" = type { [3 x double] }
%"struct.cv::Matx_MatMulOp" = type { i8 }
%"class.cv::Matx.0" = type { [9 x double] }

; Function Attrs: inlinehint mustprogress nounwind uwtable
define linkonce_odr hidden void @_ZN2cv4MatxIdLi3ELi1EEC2EPKd(ptr noundef nonnull align 8 dereferenceable(24) %0, ptr noundef %1) unnamed_addr #7 comdat align 2 {
  %3 = alloca ptr, align 8
  %4 = alloca ptr, align 8
  %5 = alloca i32, align 4
  store ptr %0, ptr %3, align 8, !tbaa !12
  store ptr %1, ptr %4, align 8, !tbaa !26
  %6 = load ptr, ptr %3, align 8
  call void @llvm.lifetime.start.p0(i64 4, ptr %5) #3
  store i32 0, ptr %5, align 4, !tbaa !14
  br label %7

7:                                                ; preds = %21, %2
  %8 = load i32, ptr %5, align 4, !tbaa !14
  %9 = icmp slt i32 %8, 3
  br i1 %9, label %11, label %10

10:                                               ; preds = %7
  call void @llvm.lifetime.end.p0(i64 4, ptr %5) #3
  br label %24

11:                                               ; preds = %7
  %12 = load ptr, ptr %4, align 8, !tbaa !26
  %13 = load i32, ptr %5, align 4, !tbaa !14
  %14 = sext i32 %13 to i64
  %15 = getelementptr inbounds double, ptr %12, i64 %14
  %16 = load double, ptr %15, align 8, !tbaa !10
  %17 = getelementptr inbounds nuw %"class.cv::Matx", ptr %6, i32 0, i32 0
  %18 = load i32, ptr %5, align 4, !tbaa !14
  %19 = sext i32 %18 to i64
  %20 = getelementptr inbounds [3 x double], ptr %17, i64 0, i64 %19
  store double %16, ptr %20, align 8, !tbaa !10
  br label %21

21:                                               ; preds = %11
  %22 = load i32, ptr %5, align 4, !tbaa !14
  %23 = add nsw i32 %22, 1
  store i32 %23, ptr %5, align 4, !tbaa !14
  br label %7, !llvm.loop !180

24:                                               ; preds = %10
  ret void
}

; Function Attrs: inlinehint mustprogress nounwind uwtable
define linkonce_odr hidden noundef nonnull align 8 dereferenceable(8) ptr @_ZNK2cv4MatxIdLi3ELi1EEclEii(ptr noundef nonnull align 8 dereferenceable(24) %0, i32 noundef %1, i32 noundef %2) #7 comdat align 2 {
  %4 = alloca ptr, align 8
  %5 = alloca i32, align 4
  %6 = alloca i32, align 4
  store ptr %0, ptr %4, align 8, !tbaa !12
  store i32 %1, ptr %5, align 4, !tbaa !14
  store i32 %2, ptr %6, align 4, !tbaa !14
  %7 = load ptr, ptr %4, align 8
  %8 = getelementptr inbounds nuw %"class.cv::Matx", ptr %7, i32 0, i32 0
  %9 = load i32, ptr %5, align 4, !tbaa !14
  %10 = mul nsw i32 %9, 1
  %11 = load i32, ptr %6, align 4, !tbaa !14
  %12 = add nsw i32 %10, %11
  %13 = sext i32 %12 to i64
  %14 = getelementptr inbounds [3 x double], ptr %8, i64 0, i64 %13
  ret ptr %14
}

; Function Attrs: inlinehint mustprogress nounwind uwtable
define linkonce_odr hidden noundef nonnull align 8 dereferenceable(8) ptr @_ZNK2cv4MatxIdLi3ELi3EEclEii(ptr noundef nonnull align 8 dereferenceable(72) %0, i32 noundef %1, i32 noundef %2) #7 comdat align 2 {
  %4 = alloca ptr, align 8
  %5 = alloca i32, align 4
  %6 = alloca i32, align 4
  store ptr %0, ptr %4, align 8, !tbaa !3
  store i32 %1, ptr %5, align 4, !tbaa !14
  store i32 %2, ptr %6, align 4, !tbaa !14
  %7 = load ptr, ptr %4, align 8
  %8 = getelementptr inbounds nuw %"class.cv::Matx.0", ptr %7, i32 0, i32 0
  %9 = load i32, ptr %5, align 4, !tbaa !14
  %10 = mul nsw i32 %9, 3
  %11 = load i32, ptr %6, align 4, !tbaa !14
  %12 = add nsw i32 %10, %11
  %13 = sext i32 %12 to i64
  %14 = getelementptr inbounds [9 x double], ptr %8, i64 0, i64 %13
  ret ptr %14
}

; Function Attrs: inlinehint mustprogress uwtable
define linkonce_odr hidden void @_ZN2cv3VecIdLi3EEC2ERKS1_(ptr noundef nonnull align 8 dereferenceable(24) %0, ptr noundef nonnull align 8 dereferenceable(24) %1) unnamed_addr #6 comdat align 2 {
  %3 = alloca ptr, align 8
  %4 = alloca ptr, align 8
  store ptr %0, ptr %3, align 8, !tbaa !8
  store ptr %1, ptr %4, align 8, !tbaa !8
  %5 = load ptr, ptr %3, align 8
  %6 = load ptr, ptr %4, align 8, !tbaa !8
  %7 = getelementptr inbounds nuw %"class.cv::Matx", ptr %6, i32 0, i32 0
  %8 = getelementptr inbounds [3 x double], ptr %7, i64 0, i64 0
  call void @_ZN2cv4MatxIdLi3ELi1EEC2EPKd(ptr noundef nonnull align 8 dereferenceable(24) %5, ptr noundef %8)
  ret void
}

; Function Attrs: inlinehint mustprogress nounwind uwtable
define linkonce_odr hidden void @_ZN2cv4MatxIdLi3ELi1EEC2ILi3EEERKNS0_IdLi3EXT_EEERKNS0_IdXT_ELi1EEENS_13Matx_MatMulOpE(ptr noundef nonnull align 8 dereferenceable(24) %0, ptr noundef nonnull align 8 dereferenceable(72) %1, ptr noundef nonnull align 8 dereferenceable(24) %2, ptr noundef %3) unnamed_addr #7 comdat align 2 {
  %5 = alloca ptr, align 8
  %6 = alloca ptr, align 8
  %7 = alloca ptr, align 8
  %8 = alloca ptr, align 8
  %9 = alloca i32, align 4
  %10 = alloca i32, align 4
  %11 = alloca i32, align 4
  %12 = alloca double, align 8
  %13 = alloca i32, align 4
  store ptr %0, ptr %5, align 8, !tbaa !12
  store ptr %1, ptr %6, align 8, !tbaa !3
  store ptr %2, ptr %7, align 8, !tbaa !12
  store ptr %3, ptr %8, align 8, !tbaa !145
  %14 = load ptr, ptr %5, align 8
  call void @llvm.lifetime.start.p0(i64 4, ptr %9) #3
  store i32 0, ptr %9, align 4, !tbaa !14
  br label %15

15:                                               ; preds = %58, %4
  %16 = load i32, ptr %9, align 4, !tbaa !14
  %17 = icmp slt i32 %16, 3
  br i1 %17, label %19, label %18

18:                                               ; preds = %15
  store i32 2, ptr %10, align 4
  call void @llvm.lifetime.end.p0(i64 4, ptr %9) #3
  br label %61

19:                                               ; preds = %15
  call void @llvm.lifetime.start.p0(i64 4, ptr %11) #3
  store i32 0, ptr %11, align 4, !tbaa !14
  br label %20

20:                                               ; preds = %54, %19
  %21 = load i32, ptr %11, align 4, !tbaa !14
  %22 = icmp slt i32 %21, 1
  br i1 %22, label %24, label %23

23:                                               ; preds = %20
  store i32 5, ptr %10, align 4
  call void @llvm.lifetime.end.p0(i64 4, ptr %11) #3
  br label %57

24:                                               ; preds = %20
  call void @llvm.lifetime.start.p0(i64 8, ptr %12) #3
  store double 0.000000e+00, ptr %12, align 8, !tbaa !10
  call void @llvm.lifetime.start.p0(i64 4, ptr %13) #3
  store i32 0, ptr %13, align 4, !tbaa !14
  br label %25

25:                                               ; preds = %42, %24
  %26 = load i32, ptr %13, align 4, !tbaa !14
  %27 = icmp slt i32 %26, 3
  br i1 %27, label %29, label %28

28:                                               ; preds = %25
  store i32 8, ptr %10, align 4
  call void @llvm.lifetime.end.p0(i64 4, ptr %13) #3
  br label %45

29:                                               ; preds = %25
  %30 = load ptr, ptr %6, align 8, !tbaa !3
  %31 = load i32, ptr %9, align 4, !tbaa !14
  %32 = load i32, ptr %13, align 4, !tbaa !14
  %33 = call noundef nonnull align 8 dereferenceable(8) ptr @_ZNK2cv4MatxIdLi3ELi3EEclEii(ptr noundef nonnull align 8 dereferenceable(72) %30, i32 noundef %31, i32 noundef %32)
  %34 = load double, ptr %33, align 8, !tbaa !10
  %35 = load ptr, ptr %7, align 8, !tbaa !12
  %36 = load i32, ptr %13, align 4, !tbaa !14
  %37 = load i32, ptr %11, align 4, !tbaa !14
  %38 = call noundef nonnull align 8 dereferenceable(8) ptr @_ZNK2cv4MatxIdLi3ELi1EEclEii(ptr noundef nonnull align 8 dereferenceable(24) %35, i32 noundef %36, i32 noundef %37)
  %39 = load double, ptr %38, align 8, !tbaa !10
  %40 = load double, ptr %12, align 8, !tbaa !10
  %41 = call double @llvm.fmuladd.f64(double %34, double %39, double %40)
  store double %41, ptr %12, align 8, !tbaa !10
  br label %42

42:                                               ; preds = %29
  %43 = load i32, ptr %13, align 4, !tbaa !14
  %44 = add nsw i32 %43, 1
  store i32 %44, ptr %13, align 4, !tbaa !14
  br label %25, !llvm.loop !177

45:                                               ; preds = %28
  %46 = load double, ptr %12, align 8, !tbaa !10
  %47 = getelementptr inbounds nuw %"class.cv::Matx", ptr %14, i32 0, i32 0
  %48 = load i32, ptr %9, align 4, !tbaa !14
  %49 = mul nsw i32 %48, 1
  %50 = load i32, ptr %11, align 4, !tbaa !14
  %51 = add nsw i32 %49, %50
  %52 = sext i32 %51 to i64
  %53 = getelementptr inbounds [3 x double], ptr %47, i64 0, i64 %52
  store double %46, ptr %53, align 8, !tbaa !10
  call void @llvm.lifetime.end.p0(i64 8, ptr %12) #3
  br label %54

54:                                               ; preds = %45
  %55 = load i32, ptr %11, align 4, !tbaa !14
  %56 = add nsw i32 %55, 1
  store i32 %56, ptr %11, align 4, !tbaa !14
  br label %20, !llvm.loop !178

57:                                               ; preds = %23
  br label %58

58:                                               ; preds = %57
  %59 = load i32, ptr %9, align 4, !tbaa !14
  %60 = add nsw i32 %59, 1
  store i32 %60, ptr %9, align 4, !tbaa !14
  br label %15, !llvm.loop !179

61:                                               ; preds = %18
  ret void
}

; Function Attrs: mustprogress nounwind uwtable
define linkonce_odr hidden void @_ZN2cv13Matx_MatMulOpC2Ev(ptr noundef nonnull align 1 dereferenceable(1) %0) unnamed_addr #9 comdat align 2 {
  %2 = alloca ptr, align 8
  store ptr %0, ptr %2, align 8, !tbaa !145
  ret void
}

; Function Attrs: inlinehint mustprogress nounwind uwtable
define linkonce_odr hidden noundef double @_ZNK2cv4MatxIdLi3ELi1EE3dotERKS1_(ptr noundef nonnull align 8 dereferenceable(24) %0, ptr noundef nonnull align 8 dereferenceable(24) %1) #7 comdat align 2 {
  %3 = alloca ptr, align 8
  %4 = alloca ptr, align 8
  %5 = alloca double, align 8
  %6 = alloca i32, align 4
  store ptr %0, ptr %3, align 8, !tbaa !12
  store ptr %1, ptr %4, align 8, !tbaa !12
  %7 = load ptr, ptr %3, align 8
  call void @llvm.lifetime.start.p0(i64 8, ptr %5) #3
  store double 0.000000e+00, ptr %5, align 8, !tbaa !10
  call void @llvm.lifetime.start.p0(i64 4, ptr %6) #3
  store i32 0, ptr %6, align 4, !tbaa !14
  br label %8

8:                                                ; preds = %26, %2
  %9 = load i32, ptr %6, align 4, !tbaa !14
  %10 = icmp slt i32 %9, 3
  br i1 %10, label %12, label %11

11:                                               ; preds = %8
  call void @llvm.lifetime.end.p0(i64 4, ptr %6) #3
  br label %29

12:                                               ; preds = %8
  %13 = getelementptr inbounds nuw %"class.cv::Matx", ptr %7, i32 0, i32 0
  %14 = load i32, ptr %6, align 4, !tbaa !14
  %15 = sext i32 %14 to i64
  %16 = getelementptr inbounds [3 x double], ptr %13, i64 0, i64 %15
  %17 = load double, ptr %16, align 8, !tbaa !10
  %18 = load ptr, ptr %4, align 8, !tbaa !12
  %19 = getelementptr inbounds nuw %"class.cv::Matx", ptr %18, i32 0, i32 0
  %20 = load i32, ptr %6, align 4, !tbaa !14
  %21 = sext i32 %20 to i64
  %22 = getelementptr inbounds [3 x double], ptr %19, i64 0, i64 %21
  %23 = load double, ptr %22, align 8, !tbaa !10
  %24 = load double, ptr %5, align 8, !tbaa !10
  %25 = call double @llvm.fmuladd.f64(double %17, double %23, double %24)
  store double %25, ptr %5, align 8, !tbaa !10
  br label %26

26:                                               ; preds = %12
  %27 = load i32, ptr %6, align 4, !tbaa !14
  %28 = add nsw i32 %27, 1
  store i32 %28, ptr %6, align 4, !tbaa !14
  br label %8, !llvm.loop !16

29:                                               ; preds = %11
  %30 = load double, ptr %5, align 8, !tbaa !10
  call void @llvm.lifetime.end.p0(i64 8, ptr %5) #3
  ret double %30
}

; Function Attrs: inlinehint mustprogress uwtable
define internal void @_ZN2cvmlIdLi3ELi3EEENS_3VecIT_XT0_EEERKNS_4MatxIS2_XT0_EXT1_EEERKNS1_IS2_XT1_EEE(ptr dead_on_unwind noalias writable sret(%"class.cv::Vec") align 8 %0, ptr noundef nonnull align 8 dereferenceable(72) %1, ptr noundef nonnull align 8 dereferenceable(24) %2) #6 {
  %4 = alloca ptr, align 8
  %5 = alloca ptr, align 8
  %6 = alloca ptr, align 8
  %7 = alloca %"class.cv::Matx", align 8
  %8 = alloca %"struct.cv::Matx_MatMulOp", align 1
  store ptr %0, ptr %4, align 8
  store ptr %1, ptr %5, align 8, !tbaa !3
  store ptr %2, ptr %6, align 8, !tbaa !8
  call void @llvm.lifetime.start.p0(i64 24, ptr %7) #3
  %9 = load ptr, ptr %5, align 8, !tbaa !3
  %10 = load ptr, ptr %6, align 8, !tbaa !8
  call void @_ZN2cv13Matx_MatMulOpC2Ev(ptr noundef nonnull align 1 dereferenceable(1) %8)
  call void @_ZN2cv4MatxIdLi3ELi1EEC2ILi3EEERKNS0_IdLi3EXT_EEERKNS0_IdXT_ELi1EEENS_13Matx_MatMulOpE(ptr noundef nonnull align 8 dereferenceable(24) %7, ptr noundef nonnull align 8 dereferenceable(72) %9, ptr noundef nonnull align 8 dereferenceable(24) %10, ptr noundef %8)
  call void @_ZN2cv3VecIdLi3EEC2ERKS1_(ptr noundef nonnull align 8 dereferenceable(24) %0, ptr noundef nonnull align 8 dereferenceable(24) %7)
  call void @llvm.lifetime.end.p0(i64 24, ptr %7) #3
  ret void
}

; Function Attrs: mustprogress uwtable
define hidden noundef zeroext i1 @_ZN2cv4usac17satisfyCheiralityERKNS_4MatxIdLi3ELi3EEERKNS_3VecIdLi3EEES8_S8_(ptr noundef nonnull align 8 dereferenceable(72) %0, ptr noundef nonnull align 8 dereferenceable(24) %1, ptr noundef nonnull align 8 dereferenceable(24) %2, ptr noundef nonnull align 8 dereferenceable(24) %3) #4 {
  %5 = alloca ptr, align 8
  %6 = alloca ptr, align 8
  %7 = alloca ptr, align 8
  %8 = alloca ptr, align 8
  %9 = alloca %"class.cv::Vec", align 8
  %10 = alloca double, align 8
  %11 = alloca double, align 8
  %12 = alloca double, align 8
  store ptr %0, ptr %5, align 8, !tbaa !3
  store ptr %1, ptr %6, align 8, !tbaa !8
  store ptr %2, ptr %7, align 8, !tbaa !8
  store ptr %3, ptr %8, align 8, !tbaa !8
  call void @llvm.lifetime.start.p0(i64 24, ptr %9) #3
  %13 = load ptr, ptr %5, align 8, !tbaa !3
  %14 = load ptr, ptr %7, align 8, !tbaa !8
  call void @_ZN2cvmlIdLi3ELi3EEENS_3VecIT_XT0_EEERKNS_4MatxIS2_XT0_EXT1_EEERKNS1_IS2_XT1_EEE(ptr dead_on_unwind writable sret(%"class.cv::Vec") align 8 %9, ptr noundef nonnull align 8 dereferenceable(72) %13, ptr noundef nonnull align 8 dereferenceable(24) %14)
  call void @llvm.lifetime.start.p0(i64 8, ptr %10) #3
  %15 = load ptr, ptr %8, align 8, !tbaa !8
  %16 = call noundef double @_ZNK2cv4MatxIdLi3ELi1EE3dotERKS1_(ptr noundef nonnull align 8 dereferenceable(24) %9, ptr noundef nonnull align 8 dereferenceable(24) %15)
  %17 = fneg double %16
  store double %17, ptr %10, align 8, !tbaa !10
  call void @llvm.lifetime.start.p0(i64 8, ptr %11) #3
  %18 = load ptr, ptr %6, align 8, !tbaa !8
  %19 = call noundef double @_ZNK2cv4MatxIdLi3ELi1EE3dotERKS1_(ptr noundef nonnull align 8 dereferenceable(24) %9, ptr noundef nonnull align 8 dereferenceable(24) %18)
  %20 = fneg double %19
  store double %20, ptr %11, align 8, !tbaa !10
  call void @llvm.lifetime.start.p0(i64 8, ptr %12) #3
  %21 = load ptr, ptr %8, align 8, !tbaa !8
  %22 = load ptr, ptr %6, align 8, !tbaa !8
  %23 = call noundef double @_ZNK2cv4MatxIdLi3ELi1EE3dotERKS1_(ptr noundef nonnull align 8 dereferenceable(24) %21, ptr noundef nonnull align 8 dereferenceable(24) %22)
  store double %23, ptr %12, align 8, !tbaa !10
  %24 = load double, ptr %11, align 8, !tbaa !10
  %25 = load double, ptr %10, align 8, !tbaa !10
  %26 = load double, ptr %12, align 8, !tbaa !10
  %27 = fneg double %25
  %28 = call double @llvm.fmuladd.f64(double %27, double %26, double %24)
  %29 = fcmp ogt double %28, 0.000000e+00
  br i1 %29, label %30, label %37

30:                                               ; preds = %4
  %31 = load double, ptr %10, align 8, !tbaa !10
  %32 = fneg double %31
  %33 = load double, ptr %11, align 8, !tbaa !10
  %34 = load double, ptr %12, align 8, !tbaa !10
  %35 = call double @llvm.fmuladd.f64(double %32, double %33, double %34)
  %36 = fcmp ogt double %35, 0.000000e+00
  br label %37

37:                                               ; preds = %30, %4
  %38 = phi i1 [ false, %4 ], [ %36, %30 ]
  call void @llvm.lifetime.end.p0(i64 8, ptr %12) #3
  call void @llvm.lifetime.end.p0(i64 8, ptr %11) #3
  call void @llvm.lifetime.end.p0(i64 8, ptr %10) #3
  call void @llvm.lifetime.end.p0(i64 24, ptr %9) #3
  ret i1 %38
}