; Function Attrs: mustprogress nofree norecurse nosync nounwind willreturn memory(argmem: read) uwtable
define hidden noundef zeroext i1 @_ZN2cv4usac17satisfyCheiralityERKNS_4MatxIdLi3ELi3EEERKNS_3VecIdLi3EEES8_S8_(ptr noundef nonnull readonly align 8 captures(none) dereferenceable(72) %0, ptr noundef nonnull readonly align 8 captures(none) dereferenceable(24) %1, ptr noundef nonnull readonly align 8 captures(none) dereferenceable(24) %2, ptr noundef nonnull readonly align 8 captures(none) dereferenceable(24) %3) local_unnamed_addr #3 {
  %5 = alloca %"class.cv::Matx", align 8
  br label %.preheader.i.i

.preheader.i.i:                                   ; preds = %.critedge.i.i, %4
  %indvars.iv23.i.i = phi i64 [ 0, %4 ], [ %indvars.iv.next24.i.i, %.critedge.i.i ]
  %6 = mul nuw nsw i64 %indvars.iv23.i.i, 3
  br label %8

.critedge.i.i:                                    ; preds = %8
  %7 = getelementptr inbounds nuw [3 x double], ptr %5, i64 0, i64 %indvars.iv23.i.i
  store double %14, ptr %7, align 8, !tbaa !3
  %indvars.iv.next24.i.i = add nuw nsw i64 %indvars.iv23.i.i, 1
  %exitcond26.not.i.i = icmp eq i64 %indvars.iv.next24.i.i, 3
  br i1 %exitcond26.not.i.i, label %_ZN2cvmlIdLi3ELi3EEENS_3VecIT_XT0_EEERKNS_4MatxIS2_XT0_EXT1_EEERKNS1_IS2_XT1_EEE.exit, label %.preheader.i.i, !llvm.loop !7

8:                                                ; preds = %8, %.preheader.i.i
  %indvars.iv.i.i = phi i64 [ 0, %.preheader.i.i ], [ %indvars.iv.next.i.i, %8 ]
  %.01619.i.i = phi double [ 0.000000e+00, %.preheader.i.i ], [ %14, %8 ]
  %9 = add nuw nsw i64 %indvars.iv.i.i, %6
  %10 = getelementptr inbounds nuw [9 x double], ptr %0, i64 0, i64 %9
  %11 = load double, ptr %10, align 8, !tbaa !3, !noalias !9
  %12 = getelementptr inbounds nuw [3 x double], ptr %2, i64 0, i64 %indvars.iv.i.i
  %13 = load double, ptr %12, align 8, !tbaa !3, !noalias !9
  %14 = tail call double @llvm.fmuladd.f64(double %11, double %13, double %.01619.i.i)
  %indvars.iv.next.i.i = add nuw nsw i64 %indvars.iv.i.i, 1
  %exitcond.not.i.i = icmp eq i64 %indvars.iv.next.i.i, 3
  br i1 %exitcond.not.i.i, label %.critedge.i.i, label %8, !llvm.loop !12

_ZN2cvmlIdLi3ELi3EEENS_3VecIT_XT0_EEERKNS_4MatxIS2_XT0_EXT1_EEERKNS1_IS2_XT1_EEE.exit: ; preds = %.critedge.i.i, %_ZN2cvmlIdLi3ELi3EEENS_3VecIT_XT0_EEERKNS_4MatxIS2_XT0_EXT1_EEERKNS1_IS2_XT1_EEE.exit
  %indvars.iv.i = phi i64 [ %indvars.iv.next.i, %_ZN2cvmlIdLi3ELi3EEENS_3VecIT_XT0_EEERKNS_4MatxIS2_XT0_EXT1_EEERKNS1_IS2_XT1_EEE.exit ], [ 0, %.critedge.i.i ]
  %.078.i = phi double [ %19, %_ZN2cvmlIdLi3ELi3EEENS_3VecIT_XT0_EEERKNS_4MatxIS2_XT0_EXT1_EEERKNS1_IS2_XT1_EEE.exit ], [ 0.000000e+00, %.critedge.i.i ]
  %15 = getelementptr inbounds nuw [3 x double], ptr %5, i64 0, i64 %indvars.iv.i
  %16 = load double, ptr %15, align 8, !tbaa !3
  %17 = getelementptr inbounds nuw [3 x double], ptr %3, i64 0, i64 %indvars.iv.i
  %18 = load double, ptr %17, align 8, !tbaa !3
  %19 = tail call double @llvm.fmuladd.f64(double %16, double %18, double %.078.i)
  %indvars.iv.next.i = add nuw nsw i64 %indvars.iv.i, 1
  %exitcond.not.i = icmp eq i64 %indvars.iv.next.i, 3
  br i1 %exitcond.not.i, label %_ZNK2cv4MatxIdLi3ELi1EE3dotERKS1_.exit, label %_ZN2cvmlIdLi3ELi3EEENS_3VecIT_XT0_EEERKNS_4MatxIS2_XT0_EXT1_EEERKNS1_IS2_XT1_EEE.exit, !llvm.loop !13

_ZNK2cv4MatxIdLi3ELi1EE3dotERKS1_.exit:           ; preds = %_ZN2cvmlIdLi3ELi3EEENS_3VecIT_XT0_EEERKNS_4MatxIS2_XT0_EXT1_EEERKNS1_IS2_XT1_EEE.exit, %_ZNK2cv4MatxIdLi3ELi1EE3dotERKS1_.exit
  %indvars.iv.i12 = phi i64 [ %indvars.iv.next.i14, %_ZNK2cv4MatxIdLi3ELi1EE3dotERKS1_.exit ], [ 0, %_ZN2cvmlIdLi3ELi3EEENS_3VecIT_XT0_EEERKNS_4MatxIS2_XT0_EXT1_EEERKNS1_IS2_XT1_EEE.exit ]
  %.078.i13 = phi double [ %24, %_ZNK2cv4MatxIdLi3ELi1EE3dotERKS1_.exit ], [ 0.000000e+00, %_ZN2cvmlIdLi3ELi3EEENS_3VecIT_XT0_EEERKNS_4MatxIS2_XT0_EXT1_EEERKNS1_IS2_XT1_EEE.exit ]
  %20 = getelementptr inbounds nuw [3 x double], ptr %5, i64 0, i64 %indvars.iv.i12
  %21 = load double, ptr %20, align 8, !tbaa !3
  %22 = getelementptr inbounds nuw [3 x double], ptr %1, i64 0, i64 %indvars.iv.i12
  %23 = load double, ptr %22, align 8, !tbaa !3
  %24 = tail call double @llvm.fmuladd.f64(double %21, double %23, double %.078.i13)
  %indvars.iv.next.i14 = add nuw nsw i64 %indvars.iv.i12, 1
  %exitcond.not.i15 = icmp eq i64 %indvars.iv.next.i14, 3
  br i1 %exitcond.not.i15, label %_ZNK2cv4MatxIdLi3ELi1EE3dotERKS1_.exit16, label %_ZNK2cv4MatxIdLi3ELi1EE3dotERKS1_.exit, !llvm.loop !13

_ZNK2cv4MatxIdLi3ELi1EE3dotERKS1_.exit16:         ; preds = %_ZNK2cv4MatxIdLi3ELi1EE3dotERKS1_.exit, %_ZNK2cv4MatxIdLi3ELi1EE3dotERKS1_.exit16
  %indvars.iv.i17 = phi i64 [ %indvars.iv.next.i19, %_ZNK2cv4MatxIdLi3ELi1EE3dotERKS1_.exit16 ], [ 0, %_ZNK2cv4MatxIdLi3ELi1EE3dotERKS1_.exit ]
  %.078.i18 = phi double [ %29, %_ZNK2cv4MatxIdLi3ELi1EE3dotERKS1_.exit16 ], [ 0.000000e+00, %_ZNK2cv4MatxIdLi3ELi1EE3dotERKS1_.exit ]
  %25 = getelementptr inbounds nuw [3 x double], ptr %3, i64 0, i64 %indvars.iv.i17
  %26 = load double, ptr %25, align 8, !tbaa !3
  %27 = getelementptr inbounds nuw [3 x double], ptr %1, i64 0, i64 %indvars.iv.i17
  %28 = load double, ptr %27, align 8, !tbaa !3
  %29 = tail call double @llvm.fmuladd.f64(double %26, double %28, double %.078.i18)
  %indvars.iv.next.i19 = add nuw nsw i64 %indvars.iv.i17, 1
  %exitcond.not.i20 = icmp eq i64 %indvars.iv.next.i19, 3
  br i1 %exitcond.not.i20, label %_ZNK2cv4MatxIdLi3ELi1EE3dotERKS1_.exit21, label %_ZNK2cv4MatxIdLi3ELi1EE3dotERKS1_.exit16, !llvm.loop !13

_ZNK2cv4MatxIdLi3ELi1EE3dotERKS1_.exit21:         ; preds = %_ZNK2cv4MatxIdLi3ELi1EE3dotERKS1_.exit16
  %30 = fneg double %24
  %31 = tail call double @llvm.fmuladd.f64(double %19, double %29, double %30)
  %32 = fcmp ogt double %31, 0.000000e+00
  %33 = tail call double @llvm.fmuladd.f64(double %19, double %30, double %29)
  %34 = fcmp ogt double %33, 0.000000e+00
  %35 = select i1 %32, i1 %34, i1 false
  ret i1 %35
}